target datalayout = "e-m:e-p270:32:32-p271:32:32-p272:64:64-i64:64-i128:128-f80:128-n8:16:32:64-S128"
target triple = "x86_64-unknown-linux-gnu"

%"class.icu_75::MaybeStackArray" = type <{ ptr, i32, i8, [40 x i8], [3 x i8] }>
%"class.icu_75::units::UnitPreferenceMetadata" = type { [8 x i8], %"class.icu_75::CharString", %"class.icu_75::CharString", %"class.icu_75::CharString", i32, i32 }
%"class.icu_75::CharString" = type { %"class.icu_75::MaybeStackArray", i32, [4 x i8] }
%"class.icu_75::MemoryPool.2" = type { i32, %"class.icu_75::MaybeStackArray.3" }
%"class.icu_75::MaybeStackArray.3" = type { ptr, i32, i8, [8 x ptr] }

; Function Attrs: mustprogress nounwind uwtable
define weak_odr noundef ptr @_ZNK6icu_7515MaybeStackArrayIcLi40EE8getAliasEv(ptr noundef nonnull align 8 dereferenceable(53) %this) #0 comdat align 2 {
entry:
  %this.addr = alloca ptr, align 8
  store ptr %this, ptr %this.addr, align 8
  %this1 = load ptr, ptr %this.addr, align 8
  %ptr = getelementptr inbounds %"class.icu_75::MaybeStackArray", ptr %this1, i32 0, i32 0
  %0 = load ptr, ptr %ptr, align 8
  ret ptr %0
}

; Function Attrs: mustprogress nounwind uwtable
define linkonce_odr noundef ptr @_ZNK6icu_7510CharString4dataEv(ptr noundef nonnull align 8 dereferenceable(60) %this) #0 comdat align 2 {
entry:
  %this.addr = alloca ptr, align 8
  store ptr %this, ptr %this.addr, align 8
  %this1 = load ptr, ptr %this.addr, align 8
  %buffer = getelementptr inbounds %"class.icu_75::CharString", ptr %this1, i32 0, i32 0
  %call = call noundef ptr @_ZNK6icu_7515MaybeStackArrayIcLi40EE8getAliasEv(ptr noundef nonnull align 8 dereferenceable(53) %buffer)
  ret ptr %call
}

; Function Attrs: mustprogress nounwind uwtable
define linkonce_odr noundef nonnull align 8 dereferenceable(8) ptr @_ZNK6icu_7515MaybeStackArrayIPNS_5units22UnitPreferenceMetadataELi8EEixEl(ptr noundef nonnull align 8 dereferenceable(80) %this, i64 noundef %i) #0 comdat align 2 {
entry:
  %this.addr = alloca ptr, align 8
  %i.addr = alloca i64, align 8
  store ptr %this, ptr %this.addr, align 8
  store i64 %i, ptr %i.addr, align 8
  %this1 = load ptr, ptr %this.addr, align 8
  %ptr = getelementptr inbounds %"class.icu_75::MaybeStackArray.3", ptr %this1, i32 0, i32 0
  %0 = load ptr, ptr %ptr, align 8
  %1 = load i64, ptr %i.addr, align 8
  %arrayidx = getelementptr inbounds ptr, ptr %0, i64 %1
  ret ptr %arrayidx
}

; Function Attrs: mustprogress uwtable
define noundef i32 @_ZNK6icu_755units22UnitPreferenceMetadata9compareToERKS1_PbS4_S4_(ptr noundef nonnull align 8 dereferenceable(208) %this, ptr noundef nonnull align 8 dereferenceable(208) %other, ptr noundef %foundCategory, ptr noundef %foundUsage, ptr noundef %foundRegion) #1 align 2 {
entry:
  %this.addr = alloca ptr, align 8
  %other.addr = alloca ptr, align 8
  %foundCategory.addr = alloca ptr, align 8
  %foundUsage.addr = alloca ptr, align 8
  %foundRegion.addr = alloca ptr, align 8
  %cmp = alloca i32, align 4
  store ptr %this, ptr %this.addr, align 8
  store ptr %other, ptr %other.addr, align 8
  store ptr %foundCategory, ptr %foundCategory.addr, align 8
  store ptr %foundUsage, ptr %foundUsage.addr, align 8
  store ptr %foundRegion, ptr %foundRegion.addr, align 8
  %this1 = load ptr, ptr %this.addr, align 8
  %category = getelementptr inbounds %"class.icu_75::units::UnitPreferenceMetadata", ptr %this1, i32 0, i32 1
  %call = call noundef ptr @_ZNK6icu_7510CharString4dataEv(ptr noundef nonnull align 8 dereferenceable(60) %category)
  %0 = load ptr, ptr %other.addr, align 8
  %category2 = getelementptr inbounds %"class.icu_75::units::UnitPreferenceMetadata", ptr %0, i32 0, i32 1
  %call3 = call noundef ptr @_ZNK6icu_7510CharString4dataEv(ptr noundef nonnull align 8 dereferenceable(60) %category2)
  %call4 = call i32 @strcmp(ptr noundef %call, ptr noundef %call3) #11
  store i32 %call4, ptr %cmp, align 4
  %1 = load i32, ptr %cmp, align 4
  %cmp5 = icmp eq i32 %1, 0
  br i1 %cmp5, label %if.then, label %if.end

if.then:                                          ; preds = %entry
  %2 = load ptr, ptr %foundCategory.addr, align 8
  store i8 1, ptr %2, align 1
  %usage = getelementptr inbounds %"class.icu_75::units::UnitPreferenceMetadata", ptr %this1, i32 0, i32 2
  %call6 = call noundef ptr @_ZNK6icu_7510CharString4dataEv(ptr noundef nonnull align 8 dereferenceable(60) %usage)
  %3 = load ptr, ptr %other.addr, align 8
  %usage7 = getelementptr inbounds %"class.icu_75::units::UnitPreferenceMetadata", ptr %3, i32 0, i32 2
  %call8 = call noundef ptr @_ZNK6icu_7510CharString4dataEv(ptr noundef nonnull align 8 dereferenceable(60) %usage7)
  %call9 = call i32 @strcmp(ptr noundef %call6, ptr noundef %call8) #11
  store i32 %call9, ptr %cmp, align 4
  br label %if.end

if.end:                                           ; preds = %if.then, %entry
  %4 = load i32, ptr %cmp, align 4
  %cmp10 = icmp eq i32 %4, 0
  br i1 %cmp10, label %if.then11, label %if.end16

if.then11:                                        ; preds = %if.end
  %5 = load ptr, ptr %foundUsage.addr, align 8
  store i8 1, ptr %5, align 1
  %region = getelementptr inbounds %"class.icu_75::units::UnitPreferenceMetadata", ptr %this1, i32 0, i32 3
  %call12 = call noundef ptr @_ZNK6icu_7510CharString4dataEv(ptr noundef nonnull align 8 dereferenceable(60) %region)
  %6 = load ptr, ptr %other.addr, align 8
  %region13 = getelementptr inbounds %"class.icu_75::units::UnitPreferenceMetadata", ptr %6, i32 0, i32 3
  %call14 = call noundef ptr @_ZNK6icu_7510CharString4dataEv(ptr noundef nonnull align 8 dereferenceable(60) %region13)
  %call15 = call i32 @strcmp(ptr noundef %call12, ptr noundef %call14) #11
  store i32 %call15, ptr %cmp, align 4
  br label %if.end16

if.end16:                                         ; preds = %if.then11, %if.end
  %7 = load i32, ptr %cmp, align 4
  %cmp17 = icmp eq i32 %7, 0
  br i1 %cmp17, label %if.then18, label %if.end19

if.then18:                                        ; preds = %if.end16
  %8 = load ptr, ptr %foundRegion.addr, align 8
  store i8 1, ptr %8, align 1
  br label %if.end19

if.end19:                                         ; preds = %if.then18, %if.end16
  %9 = load i32, ptr %cmp, align 4
  ret i32 %9
}

; Function Attrs: mustprogress uwtable
define linkonce_odr noundef ptr @_ZNK6icu_7516MaybeStackVectorINS_5units22UnitPreferenceMetadataELi8EEixEl(ptr noundef nonnull align 8 dereferenceable(88) %this, i64 noundef %i) #1 comdat align 2 {
entry:
  %this.addr = alloca ptr, align 8
  %i.addr = alloca i64, align 8
  store ptr %this, ptr %this.addr, align 8
  store i64 %i, ptr %i.addr, align 8
  %this1 = load ptr, ptr %this.addr, align 8
  %fPool = getelementptr inbounds %"class.icu_75::MemoryPool.2", ptr %this1, i32 0, i32 1
  %0 = load i64, ptr %i.addr, align 8
  %call = call noundef nonnull align 8 dereferenceable(8) ptr @_ZNK6icu_7515MaybeStackArrayIPNS_5units22UnitPreferenceMetadataELi8EEixEl(ptr noundef nonnull align 8 dereferenceable(80) %fPool, i64 noundef %0)
  %1 = load ptr, ptr %call, align 8
  ret ptr %1
}

; Function Attrs: mustprogress nounwind uwtable
define linkonce_odr noundef i32 @_ZNK6icu_7516MaybeStackVectorINS_5units22UnitPreferenceMetadataELi8EE6lengthEv(ptr noundef nonnull align 8 dereferenceable(88) %this) #0 comdat align 2 {
entry:
  %this.addr = alloca ptr, align 8
  store ptr %this, ptr %this.addr, align 8
  %this1 = load ptr, ptr %this.addr, align 8
  %fCount = getelementptr inbounds %"class.icu_75::MemoryPool.2", ptr %this1, i32 0, i32 0
  %0 = load i32, ptr %fCount, align 8
  ret i32 %0
}

; Function Attrs: mustprogress nounwind uwtable
define internal noundef signext i8 @_ZL9U_FAILURE10UErrorCode(i32 noundef %code) #0 {
entry:
  %code.addr = alloca i32, align 4
  store i32 %code, ptr %code.addr, align 4
  %0 = load i32, ptr %code.addr, align 4
  %cmp = icmp sgt i32 %0, 0
  %conv = zext i1 %cmp to i8
  ret i8 %conv
}

; Function Attrs: mustprogress uwtable
define internal noundef i32 @_ZN6icu_755units12_GLOBAL__N_112binarySearchEPKNS_16MaybeStackVectorINS0_22UnitPreferenceMetadataELi8EEERKS3_PbS9_S9_R10UErrorCode(ptr noundef %metadata, ptr noundef nonnull align 8 dereferenceable(208) %desired, ptr noundef %foundCategory, ptr noundef %foundUsage, ptr noundef %foundRegion, ptr noundef nonnull align 4 dereferenceable(4) %status) #1 {
entry:
  %retval = alloca i32, align 4
  %metadata.addr = alloca ptr, align 8
  %desired.addr = alloca ptr, align 8
  %foundCategory.addr = alloca ptr, align 8
  %foundUsage.addr = alloca ptr, align 8
  %foundRegion.addr = alloca ptr, align 8
  %status.addr = alloca ptr, align 8
  %start = alloca i32, align 4
  %end = alloca i32, align 4
  %mid = alloca i32, align 4
  %cmp2 = alloca i32, align 4
  store ptr %metadata, ptr %metadata.addr, align 8
  store ptr %desired, ptr %desired.addr, align 8
  store ptr %foundCategory, ptr %foundCategory.addr, align 8
  store ptr %foundUsage, ptr %foundUsage.addr, align 8
  store ptr %foundRegion, ptr %foundRegion.addr, align 8
  store ptr %status, ptr %status.addr, align 8
  %0 = load ptr, ptr %status.addr, align 8
  %1 = load i32, ptr %0, align 4
  %call = call noundef signext i8 @_ZL9U_FAILURE10UErrorCode(i32 noundef %1)
  %tobool = icmp ne i8 %call, 0
  br i1 %tobool, label %if.then, label %if.end

if.then:                                          ; preds = %entry
  store i32 -1, ptr %retval, align 4
  br label %return

if.end:                                           ; preds = %entry
  store i32 0, ptr %start, align 4
  %2 = load ptr, ptr %metadata.addr, align 8
  %call1 = call noundef i32 @_ZNK6icu_7516MaybeStackVectorINS_5units22UnitPreferenceMetadataELi8EE6lengthEv(ptr noundef nonnull align 8 dereferenceable(88) %2)
  store i32 %call1, ptr %end, align 4
  %3 = load ptr, ptr %foundCategory.addr, align 8
  store i8 0, ptr %3, align 1
  %4 = load ptr, ptr %foundUsage.addr, align 8
  store i8 0, ptr %4, align 1
  %5 = load ptr, ptr %foundRegion.addr, align 8
  store i8 0, ptr %5, align 1
  br label %while.cond

while.cond:                                       ; preds = %if.end12, %if.end
  %6 = load i32, ptr %start, align 4
  %7 = load i32, ptr %end, align 4
  %cmp = icmp slt i32 %6, %7
  br i1 %cmp, label %while.body, label %while.end

while.body:                                       ; preds = %while.cond
  %8 = load i32, ptr %start, align 4
  %9 = load i32, ptr %end, align 4
  %add = add nsw i32 %8, %9
  %div = sdiv i32 %add, 2
  store i32 %div, ptr %mid, align 4
  %10 = load ptr, ptr %metadata.addr, align 8
  %11 = load i32, ptr %mid, align 4
  %conv = sext i32 %11 to i64
  %call3 = call noundef ptr @_ZNK6icu_7516MaybeStackVectorINS_5units22UnitPreferenceMetadataELi8EEixEl(ptr noundef nonnull align 8 dereferenceable(88) %10, i64 noundef %conv)
  %12 = load ptr, ptr %desired.addr, align 8
  %13 = load ptr, ptr %foundCategory.addr, align 8
  %14 = load ptr, ptr %foundUsage.addr, align 8
  %15 = load ptr, ptr %foundRegion.addr, align 8
  %call4 = call noundef i32 @_ZNK6icu_755units22UnitPreferenceMetadata9compareToERKS1_PbS4_S4_(ptr noundef nonnull align 8 dereferenceable(208) %call3, ptr noundef nonnull align 8 dereferenceable(208) %12, ptr noundef %13, ptr noundef %14, ptr noundef %15)
  store i32 %call4, ptr %cmp2, align 4
  %16 = load i32, ptr %cmp2, align 4
  %cmp5 = icmp slt i32 %16, 0
  br i1 %cmp5, label %if.then6, label %if.else

if.then6:                                         ; preds = %while.body
  %17 = load i32, ptr %mid, align 4
  %add7 = add nsw i32 %17, 1
  store i32 %add7, ptr %start, align 4
  br label %if.end12

if.else:                                          ; preds = %while.body
  %18 = load i32, ptr %cmp2, align 4
  %cmp8 = icmp sgt i32 %18, 0
  br i1 %cmp8, label %if.then9, label %if.else10

if.then9:                                         ; preds = %if.else
  %19 = load i32, ptr %mid, align 4
  store i32 %19, ptr %end, align 4
  br label %if.end11

if.else10:                                        ; preds = %if.else
  %20 = load i32, ptr %mid, align 4
  store i32 %20, ptr %retval, align 4
  br label %return

if.end11:                                         ; preds = %if.then9
  br label %if.end12

if.end12:                                         ; preds = %if.end11, %if.then6
  br label %while.cond, !llvm.loop !21

while.end:                                        ; preds = %while.cond
  store i32 -1, ptr %retval, align 4
  br label %return

return:                                           ; preds = %while.end, %if.else10, %if.then
  %21 = load i32, ptr %retval, align 4
  ret i32 %21
}