; Function Attrs: mustprogress nofree nounwind memory(read, argmem: readwrite, inaccessiblemem: none) uwtable
define internal fastcc noundef i32 @_ZN6icu_755units12_GLOBAL__N_112binarySearchEPKNS_16MaybeStackVectorINS0_22UnitPreferenceMetadataELi8EEERKS3_PbS9_S9_R10UErrorCode(ptr nocapture noundef readonly %metadata, ptr nocapture noundef nonnull readonly align 8 dereferenceable(208) %desired, ptr nocapture noundef writeonly %foundCategory, ptr nocapture noundef writeonly %foundUsage, ptr nocapture noundef writeonly %foundRegion, i32 %status.0.val) unnamed_addr #10 {
entry:
  %cmp.i = icmp slt i32 %status.0.val, 1
  br i1 %cmp.i, label %if.end, label %return

if.end:                                           ; preds = %entry
  %0 = load i32, ptr %metadata, align 8
  store i8 0, ptr %foundCategory, align 1
  store i8 0, ptr %foundUsage, align 1
  store i8 0, ptr %foundRegion, align 1
  %cmp7 = icmp sgt i32 %0, 0
  br i1 %cmp7, label %while.body.lr.ph, label %return

while.body.lr.ph:                                 ; preds = %if.end
  %fPool.i = getelementptr inbounds i8, ptr %metadata, i64 8
  %category2.i = getelementptr inbounds i8, ptr %desired, i64 8
  %usage7.i = getelementptr inbounds i8, ptr %desired, i64 72
  %region13.i = getelementptr inbounds i8, ptr %desired, i64 136
  br label %while.body

while.body:                                       ; preds = %while.body.lr.ph, %_ZNK6icu_755units22UnitPreferenceMetadata9compareToERKS1_PbS4_S4_.exit
  %start.09 = phi i32 [ 0, %while.body.lr.ph ], [ %spec.select6, %_ZNK6icu_755units22UnitPreferenceMetadata9compareToERKS1_PbS4_S4_.exit ]
  %end.08 = phi i32 [ %0, %while.body.lr.ph ], [ %spec.select, %_ZNK6icu_755units22UnitPreferenceMetadata9compareToERKS1_PbS4_S4_.exit ]
  %add = add nuw nsw i32 %start.09, %end.08
  %div11 = lshr i32 %add, 1
  %conv = zext nneg i32 %div11 to i64
  %1 = load ptr, ptr %fPool.i, align 8
  %arrayidx.i.i = getelementptr inbounds ptr, ptr %1, i64 %conv
  %2 = load ptr, ptr %arrayidx.i.i, align 8
  %category.i = getelementptr inbounds i8, ptr %2, i64 8
  %3 = load ptr, ptr %category.i, align 8
  %4 = load ptr, ptr %category2.i, align 8
  %call4.i = tail call i32 @strcmp(ptr noundef nonnull dereferenceable(1) %3, ptr noundef nonnull dereferenceable(1) %4) #18
  %cmp5.i = icmp eq i32 %call4.i, 0
  br i1 %cmp5.i, label %if.end.i, label %_ZNK6icu_755units22UnitPreferenceMetadata9compareToERKS1_PbS4_S4_.exit

if.end.i:                                         ; preds = %while.body
  store i8 1, ptr %foundCategory, align 1
  %usage.i = getelementptr inbounds i8, ptr %2, i64 72
  %5 = load ptr, ptr %usage.i, align 8
  %6 = load ptr, ptr %usage7.i, align 8
  %call9.i = tail call i32 @strcmp(ptr noundef nonnull dereferenceable(1) %5, ptr noundef nonnull dereferenceable(1) %6) #18
  %cmp10.i = icmp eq i32 %call9.i, 0
  br i1 %cmp10.i, label %if.end16.i, label %_ZNK6icu_755units22UnitPreferenceMetadata9compareToERKS1_PbS4_S4_.exit

if.end16.i:                                       ; preds = %if.end.i
  store i8 1, ptr %foundUsage, align 1
  %region.i = getelementptr inbounds i8, ptr %2, i64 136
  %7 = load ptr, ptr %region.i, align 8
  %8 = load ptr, ptr %region13.i, align 8
  %call15.i = tail call i32 @strcmp(ptr noundef nonnull dereferenceable(1) %7, ptr noundef nonnull dereferenceable(1) %8) #18
  %cmp17.i = icmp eq i32 %call15.i, 0
  br i1 %cmp17.i, label %if.else.thread, label %_ZNK6icu_755units22UnitPreferenceMetadata9compareToERKS1_PbS4_S4_.exit

if.else.thread:                                   ; preds = %if.end16.i
  store i8 1, ptr %foundRegion, align 1
  br label %return

_ZNK6icu_755units22UnitPreferenceMetadata9compareToERKS1_PbS4_S4_.exit: ; preds = %while.body, %if.end.i, %if.end16.i
  %cmp.110.i = phi i32 [ %call15.i, %if.end16.i ], [ %call9.i, %if.end.i ], [ %call4.i, %while.body ]
  %cmp5 = icmp slt i32 %cmp.110.i, 0
  %add7 = add nuw nsw i32 %div11, 1
  %spec.select = select i1 %cmp5, i32 %end.08, i32 %div11
  %spec.select6 = select i1 %cmp5, i32 %add7, i32 %start.09
  %cmp = icmp slt i32 %spec.select6, %spec.select
  br i1 %cmp, label %while.body, label %return, !llvm.loop !20

return:                                           ; preds = %_ZNK6icu_755units22UnitPreferenceMetadata9compareToERKS1_PbS4_S4_.exit, %if.end, %if.else.thread, %entry
  %retval.0 = phi i32 [ -1, %entry ], [ %div11, %if.else.thread ], [ -1, %if.end ], [ -1, %_ZNK6icu_755units22UnitPreferenceMetadata9compareToERKS1_PbS4_S4_.exit ]
  ret i32 %retval.0
}